; Function Attrs: nounwind uwtable
define zeroext i8 @l_Option_beqOption____x40_Init_Data_Option_Basic___hyg_160____at_Std_Tactic_BVDecide_LRAT_Internal_DefaultFormula_numClausesInFormula___spec__1(ptr noundef %0, ptr noundef %1, ptr noundef %2) local_unnamed_addr #1 {
  %4 = ptrtoint ptr %1 to i64
  %5 = and i64 %4, 1
  %.not.i = icmp eq i64 %5, 0
  br i1 %.not.i, label %9, label %6

6:                                                ; preds = %3
  %7 = lshr i64 %4, 1
  %8 = trunc i64 %7 to i32
  br label %lean_obj_tag.exit

9:                                                ; preds = %3
  %10 = getelementptr i8, ptr %1, i64 4
  %.val.i = load i32, ptr %10, align 4
  %11 = lshr i32 %.val.i, 24
  br label %lean_obj_tag.exit

lean_obj_tag.exit:                                ; preds = %6, %9
  %.0.i = phi i32 [ %8, %6 ], [ %11, %9 ]
  %12 = icmp eq i32 %.0.i, 0
  %13 = ptrtoint ptr %2 to i64
  %14 = and i64 %13, 1
  %.not.i12 = icmp eq i64 %14, 0
  br i1 %12, label %15, label %23

15:                                               ; preds = %lean_obj_tag.exit
  br i1 %.not.i12, label %19, label %16

16:                                               ; preds = %15
  %17 = lshr i64 %13, 1
  %18 = trunc i64 %17 to i32
  br label %lean_obj_tag.exit15

19:                                               ; preds = %15
  %20 = getelementptr i8, ptr %2, i64 4
  %.val.i14 = load i32, ptr %20, align 4
  %21 = lshr i32 %.val.i14, 24
  br label %lean_obj_tag.exit15

lean_obj_tag.exit15:                              ; preds = %16, %19
  %.0.i13 = phi i32 [ %18, %16 ], [ %21, %19 ]
  %22 = icmp eq i32 %.0.i13, 0
  %. = zext i1 %22 to i8
  br label %37

23:                                               ; preds = %lean_obj_tag.exit
  br i1 %.not.i12, label %27, label %24

24:                                               ; preds = %23
  %25 = lshr i64 %13, 1
  %26 = trunc i64 %25 to i32
  br label %lean_obj_tag.exit19

27:                                               ; preds = %23
  %28 = getelementptr i8, ptr %2, i64 4
  %.val.i18 = load i32, ptr %28, align 4
  %29 = lshr i32 %.val.i18, 24
  br label %lean_obj_tag.exit19

lean_obj_tag.exit19:                              ; preds = %24, %27
  %.0.i17 = phi i32 [ %26, %24 ], [ %29, %27 ]
  %30 = icmp eq i32 %.0.i17, 0
  br i1 %30, label %37, label %31

31:                                               ; preds = %lean_obj_tag.exit19
  %32 = getelementptr inbounds nuw i8, ptr %1, i64 8
  %33 = load ptr, ptr %32, align 8, !tbaa !9
  %34 = getelementptr inbounds nuw i8, ptr %2, i64 8
  %35 = load ptr, ptr %34, align 8, !tbaa !9
  %36 = tail call zeroext i8 @l_List_beq___at_Std_Tactic_BVDecide_LRAT_Internal_beqDefaultClause____x40_Std_Tactic_BVDecide_LRAT_Internal_Clause___hyg_653____spec__1(ptr noundef %0, ptr noundef %33, ptr noundef %35) #5
  br label %37

37:                                               ; preds = %lean_obj_tag.exit19, %lean_obj_tag.exit15, %31
  %.0 = phi i8 [ %36, %31 ], [ %., %lean_obj_tag.exit15 ], [ 0, %lean_obj_tag.exit19 ]
  ret i8 %.0
}